target datalayout = "e-m:e-p270:32:32-p271:32:32-p272:64:64-i64:64-i128:128-f80:128-n8:16:32:64-S128"
target triple = "x86_64-pc-linux-gnu"

%struct._packet_info = type { ptr, ptr, i32, i32, %struct.nstime_t, %struct.nstime_t, %struct.nstime_t, i8, ptr, ptr, ptr, ptr, %struct._address, %struct._address, %struct._address, %struct._address, %struct._address, %struct._address, i32, ptr, i8, [3 x i8], %struct.anon, i32, i32, i32, i32, ptr, i8, ptr, ptr, i16, i16, i32, i32, i16, i32, i32, ptr, ptr, ptr, i8, i8, i16, i16, i16, i32, i16, i16, ptr, ptr, ptr, ptr, ptr, i32, i32 }
%struct.nstime_t = type { i64, i32 }
%struct._address = type { i32, i32, ptr, ptr }
%struct.anon = type { i8, [3 x i8] }
%struct.SslPacketInfo = type { ptr, ptr, i32, i32, i32 }

@proto_dtls = internal global i32 0, align 4
@.str.918 = private unnamed_addr constant [4 x i8] c"\E2\86\92\00", align 1
@.str.919 = private unnamed_addr constant [19 x i8] c"destination (%s%u)\00", align 1

; Function Attrs: null_pointer_is_valid sspstrong uwtable
define internal void @dtls_dst_prompt(ptr noundef %0, ptr noundef %1) #0 {
  %3 = alloca ptr, align 8
  %4 = alloca ptr, align 8
  %5 = alloca ptr, align 8
  %6 = alloca i32, align 4
  store ptr %0, ptr %3, align 8
  store ptr %1, ptr %4, align 8
  call void @llvm.lifetime.start.p0(i64 8, ptr %5) #12
  call void @llvm.lifetime.start.p0(i64 4, ptr %6) #12
  %7 = load ptr, ptr %3, align 8
  %8 = getelementptr inbounds nuw %struct._packet_info, ptr %7, i32 0, i32 25
  %9 = load i32, ptr %8, align 8
  store i32 %9, ptr %6, align 4
  %10 = call ptr @wmem_file_scope()
  %11 = load ptr, ptr %3, align 8
  %12 = load i32, ptr @proto_dtls, align 4
  %13 = load ptr, ptr %3, align 8
  %14 = getelementptr inbounds nuw %struct._packet_info, ptr %13, i32 0, i32 41
  %15 = load i8, ptr %14, align 8
  %16 = zext i8 %15 to i32
  %17 = call ptr @p_get_proto_data(ptr noundef %10, ptr noundef %11, i32 noundef %12, i32 noundef %16)
  store ptr %17, ptr %5, align 8
  %18 = load ptr, ptr %5, align 8
  %19 = icmp ne ptr %18, null
  br i1 %19, label %20, label %24

20:                                               ; preds = %2
  %21 = load ptr, ptr %5, align 8
  %22 = getelementptr inbounds nuw %struct.SslPacketInfo, ptr %21, i32 0, i32 3
  %23 = load i32, ptr %22, align 4
  store i32 %23, ptr %6, align 4
  br label %24

24:                                               ; preds = %20, %2
  %25 = load ptr, ptr %4, align 8
  %26 = load ptr, ptr %4, align 8
  %27 = call i64 @llvm.objectsize.i64.p0(ptr %26, i1 false, i1 true, i1 true)
  %28 = load i32, ptr %6, align 4
  %29 = call i32 (ptr, i64, i32, i64, ptr, ...) @__snprintf_chk(ptr noundef %25, i64 noundef 200, i32 noundef 2, i64 noundef %27, ptr noundef @.str.919, ptr noundef @.str.918, i32 noundef %28)
  call void @llvm.lifetime.end.p0(i64 4, ptr %6) #12
  call void @llvm.lifetime.end.p0(i64 8, ptr %5) #12
  ret void
}