; Function Attrs: null_pointer_is_valid sspstrong uwtable
define internal void @dtls_dst_prompt(ptr noundef %0, ptr noundef %1) #0 {
  %3 = getelementptr inbounds nuw i8, ptr %0, i64 288
  %4 = load i32, ptr %3, align 8
  %5 = tail call ptr @wmem_file_scope()
  %6 = load i32, ptr @proto_dtls, align 4
  %7 = getelementptr inbounds nuw i8, ptr %0, i64 376
  %8 = load i8, ptr %7, align 8
  %9 = zext i8 %8 to i32
  %10 = tail call ptr @p_get_proto_data(ptr noundef %5, ptr noundef %0, i32 noundef %6, i32 noundef %9)
  %.not = icmp eq ptr %10, null
  br i1 %.not, label %14, label %11

11:                                               ; preds = %2
  %12 = getelementptr inbounds nuw i8, ptr %10, i64 20
  %13 = load i32, ptr %12, align 4
  br label %14

14:                                               ; preds = %11, %2
  %.0 = phi i32 [ %13, %11 ], [ %4, %2 ]
  %15 = tail call i32 (ptr, i64, i32, i64, ptr, ...) @__snprintf_chk(ptr noundef %1, i64 noundef 200, i32 noundef 2, i64 noundef -1, ptr noundef nonnull @.str.919, ptr noundef nonnull @.str.918, i32 noundef %.0)
  ret void
}